target datalayout = "e-m:e-p270:32:32-p271:32:32-p272:64:64-i64:64-i128:128-f80:128-n8:16:32:64-S128"
target triple = "x86_64-pc-linux-gnu"

%struct.poly1305_state_internal_t = type { %union.anon, [5 x i32], [5 x i32], [5 x i32], [2 x i64], i64, i64, [32 x i8] }
%union.anon = type { [3 x i64], [16 x i8] }
%struct.__storeu_si128 = type { <2 x i64> }
%struct.__loadu_si128 = type { <2 x i64> }

; Function Attrs: alwaysinline nounwind ssp uwtable
define internal void @_mm_store_si128(ptr noundef %0, <2 x i64> noundef %1) #3 {
  %3 = alloca ptr, align 8
  %4 = alloca <2 x i64>, align 16
  store ptr %0, ptr %3, align 8
  store <2 x i64> %1, ptr %4, align 16
  %5 = load <2 x i64>, ptr %4, align 16
  %6 = load ptr, ptr %3, align 8
  store <2 x i64> %5, ptr %6, align 16
  ret void
}

; Function Attrs: alwaysinline nounwind ssp uwtable
define internal <2 x i64> @_mm_loadu_si128(ptr noundef %0) #3 {
  %2 = alloca ptr, align 8
  store ptr %0, ptr %2, align 8
  %3 = load ptr, ptr %2, align 8
  %4 = getelementptr inbounds nuw %struct.__loadu_si128, ptr %3, i32 0, i32 0
  %5 = load <2 x i64>, ptr %4, align 1
  ret <2 x i64> %5
}

; Function Attrs: alwaysinline nounwind
define internal ptr @memcpy.inline(ptr noalias nonnull %0, ptr noalias nonnull %1, i64 %2) #4 {
  %4 = alloca ptr, align 8
  %5 = alloca ptr, align 8
  %6 = alloca i64, align 8
  store ptr %0, ptr %4, align 8
  store ptr %1, ptr %5, align 8
  store i64 %2, ptr %6, align 8
  %7 = load ptr, ptr %4, align 8
  %8 = load ptr, ptr %5, align 8
  %9 = load i64, ptr %6, align 8
  %10 = load ptr, ptr %4, align 8
  %11 = call i64 @llvm.objectsize.i64.p0(ptr %10, i1 false, i1 true, i1 true)
  %12 = call ptr @__memcpy_chk(ptr noundef %7, ptr noundef %8, i64 noundef %9, i64 noundef %11) #11
  ret ptr %12
}

; Function Attrs: alwaysinline nounwind ssp uwtable
define internal void @_mm_storeu_si128(ptr noundef %0, <2 x i64> noundef %1) #3 {
  %3 = alloca ptr, align 8
  %4 = alloca <2 x i64>, align 16
  store ptr %0, ptr %3, align 8
  store <2 x i64> %1, ptr %4, align 16
  %5 = load <2 x i64>, ptr %4, align 16
  %6 = load ptr, ptr %3, align 8
  %7 = getelementptr inbounds nuw %struct.__storeu_si128, ptr %6, i32 0, i32 0
  store <2 x i64> %5, ptr %7, align 1
  ret void
}

; Function Attrs: alwaysinline nounwind ssp uwtable
define internal <2 x i64> @_mm_setzero_si128() #3 {
  %1 = alloca <2 x i64>, align 16
  store <2 x i64> zeroinitializer, ptr %1, align 16
  %2 = load <2 x i64>, ptr %1, align 16
  ret <2 x i64> %2
}

; Function Attrs: inlinehint nounwind ssp uwtable
define internal void @poly1305_block_copy31(ptr noundef %0, ptr noundef %1, i64 noundef %2) #9 {
  %4 = alloca ptr, align 8
  %5 = alloca ptr, align 8
  %6 = alloca i64, align 8
  store ptr %0, ptr %4, align 8
  store ptr %1, ptr %5, align 8
  store i64 %2, ptr %6, align 8
  %7 = load i64, ptr %6, align 8
  %8 = and i64 %7, 16
  %9 = icmp ne i64 %8, 0
  br i1 %9, label %10, label %18

10:                                               ; preds = %3
  %11 = load ptr, ptr %4, align 8
  %12 = load ptr, ptr %5, align 8
  %13 = call <2 x i64> @_mm_loadu_si128(ptr noundef %12)
  call void @_mm_store_si128(ptr noundef %11, <2 x i64> noundef %13)
  %14 = load ptr, ptr %5, align 8
  %15 = getelementptr i8, ptr %14, i64 16
  store ptr %15, ptr %5, align 8
  %16 = load ptr, ptr %4, align 8
  %17 = getelementptr i8, ptr %16, i64 16
  store ptr %17, ptr %4, align 8
  br label %18

18:                                               ; preds = %10, %3
  %19 = load i64, ptr %6, align 8
  %20 = and i64 %19, 8
  %21 = icmp ne i64 %20, 0
  br i1 %21, label %22, label %30

22:                                               ; preds = %18
  %23 = load ptr, ptr %4, align 8
  %24 = load ptr, ptr %5, align 8
  %25 = call ptr @memcpy.inline(ptr noundef %23, ptr noundef %24, i64 noundef 8) #11
  %26 = load ptr, ptr %5, align 8
  %27 = getelementptr i8, ptr %26, i64 8
  store ptr %27, ptr %5, align 8
  %28 = load ptr, ptr %4, align 8
  %29 = getelementptr i8, ptr %28, i64 8
  store ptr %29, ptr %4, align 8
  br label %30

30:                                               ; preds = %22, %18
  %31 = load i64, ptr %6, align 8
  %32 = and i64 %31, 4
  %33 = icmp ne i64 %32, 0
  br i1 %33, label %34, label %42

34:                                               ; preds = %30
  %35 = load ptr, ptr %4, align 8
  %36 = load ptr, ptr %5, align 8
  %37 = call ptr @memcpy.inline(ptr noundef %35, ptr noundef %36, i64 noundef 4) #11
  %38 = load ptr, ptr %5, align 8
  %39 = getelementptr i8, ptr %38, i64 4
  store ptr %39, ptr %5, align 8
  %40 = load ptr, ptr %4, align 8
  %41 = getelementptr i8, ptr %40, i64 4
  store ptr %41, ptr %4, align 8
  br label %42

42:                                               ; preds = %34, %30
  %43 = load i64, ptr %6, align 8
  %44 = and i64 %43, 2
  %45 = icmp ne i64 %44, 0
  br i1 %45, label %46, label %54

46:                                               ; preds = %42
  %47 = load ptr, ptr %4, align 8
  %48 = load ptr, ptr %5, align 8
  %49 = call ptr @memcpy.inline(ptr noundef %47, ptr noundef %48, i64 noundef 2) #11
  %50 = load ptr, ptr %5, align 8
  %51 = getelementptr i8, ptr %50, i64 2
  store ptr %51, ptr %5, align 8
  %52 = load ptr, ptr %4, align 8
  %53 = getelementptr i8, ptr %52, i64 2
  store ptr %53, ptr %4, align 8
  br label %54

54:                                               ; preds = %46, %42
  %55 = load i64, ptr %6, align 8
  %56 = and i64 %55, 1
  %57 = icmp ne i64 %56, 0
  br i1 %57, label %58, label %62

58:                                               ; preds = %54
  %59 = load ptr, ptr %5, align 8
  %60 = load i8, ptr %59, align 1
  %61 = load ptr, ptr %4, align 8
  store i8 %60, ptr %61, align 1
  br label %62

62:                                               ; preds = %58, %54
  ret void
}

; Function Attrs: noinline nounwind ssp uwtable
define internal void @poly1305_finish_ext(ptr noundef %0, ptr noundef %1, i64 noundef %2, ptr noundef %3) #2 {
  %5 = alloca ptr, align 8
  %6 = alloca ptr, align 8
  %7 = alloca i64, align 8
  %8 = alloca ptr, align 8
  %9 = alloca i64, align 8
  %10 = alloca i64, align 8
  %11 = alloca i64, align 8
  %12 = alloca [32 x i8], align 16
  store ptr %0, ptr %5, align 8
  store ptr %1, ptr %6, align 8
  store i64 %2, ptr %7, align 8
  store ptr %3, ptr %8, align 8
  call void @llvm.lifetime.start.p0(i64 8, ptr %9) #11
  call void @llvm.lifetime.start.p0(i64 8, ptr %10) #11
  call void @llvm.lifetime.start.p0(i64 8, ptr %11) #11
  %13 = load i64, ptr %7, align 8
  %14 = icmp ne i64 %13, 0
  br i1 %14, label %15, label %35

15:                                               ; preds = %4
  call void @llvm.lifetime.start.p0(i64 32, ptr %12) #11
  call void @llvm.memset.p0.i64(ptr align 16 %12, i8 0, i64 32, i1 false)
  %16 = getelementptr inbounds [32 x i8], ptr %12, i64 0, i64 0
  %17 = load ptr, ptr %6, align 8
  %18 = load i64, ptr %7, align 8
  call void @poly1305_block_copy31(ptr noundef %16, ptr noundef %17, i64 noundef %18)
  %19 = load i64, ptr %7, align 8
  %20 = icmp ne i64 %19, 16
  br i1 %20, label %21, label %24

21:                                               ; preds = %15
  %22 = load i64, ptr %7, align 8
  %23 = getelementptr [32 x i8], ptr %12, i64 0, i64 %22
  store i8 1, ptr %23, align 1
  br label %24

24:                                               ; preds = %21, %15
  %25 = load i64, ptr %7, align 8
  %26 = icmp uge i64 %25, 16
  %27 = select i1 %26, i32 4, i32 8
  %28 = sext i32 %27 to i64
  %29 = load ptr, ptr %5, align 8
  %30 = getelementptr inbounds nuw %struct.poly1305_state_internal_t, ptr %29, i32 0, i32 5
  %31 = load i64, ptr %30, align 8
  %32 = or i64 %31, %28
  store i64 %32, ptr %30, align 8
  %33 = load ptr, ptr %5, align 8
  %34 = getelementptr inbounds [32 x i8], ptr %12, i64 0, i64 0
  call void @poly1305_blocks(ptr noundef %33, ptr noundef %34, i64 noundef 32)
  call void @llvm.lifetime.end.p0(i64 32, ptr %12) #11
  br label %35

35:                                               ; preds = %24, %4
  %36 = load ptr, ptr %5, align 8
  %37 = getelementptr inbounds nuw %struct.poly1305_state_internal_t, ptr %36, i32 0, i32 5
  %38 = load i64, ptr %37, align 8
  %39 = and i64 %38, 1
  %40 = icmp ne i64 %39, 0
  br i1 %40, label %41, label %59

41:                                               ; preds = %35
  %42 = load i64, ptr %7, align 8
  %43 = icmp ne i64 %42, 0
  br i1 %43, label %44, label %47

44:                                               ; preds = %41
  %45 = load i64, ptr %7, align 8
  %46 = icmp ugt i64 %45, 16
  br i1 %46, label %47, label %52

47:                                               ; preds = %44, %41
  %48 = load ptr, ptr %5, align 8
  %49 = getelementptr inbounds nuw %struct.poly1305_state_internal_t, ptr %48, i32 0, i32 5
  %50 = load i64, ptr %49, align 8
  %51 = or i64 %50, 16
  store i64 %51, ptr %49, align 8
  br label %57

52:                                               ; preds = %44
  %53 = load ptr, ptr %5, align 8
  %54 = getelementptr inbounds nuw %struct.poly1305_state_internal_t, ptr %53, i32 0, i32 5
  %55 = load i64, ptr %54, align 8
  %56 = or i64 %55, 32
  store i64 %56, ptr %54, align 8
  br label %57

57:                                               ; preds = %52, %47
  %58 = load ptr, ptr %5, align 8
  call void @poly1305_blocks(ptr noundef %58, ptr noundef null, i64 noundef 32)
  br label %59

59:                                               ; preds = %57, %35
  %60 = load ptr, ptr %5, align 8
  %61 = getelementptr inbounds nuw %struct.poly1305_state_internal_t, ptr %60, i32 0, i32 0
  %62 = getelementptr [3 x i64], ptr %61, i64 0, i64 0
  %63 = load i64, ptr %62, align 8
  store i64 %63, ptr %9, align 8
  %64 = load ptr, ptr %5, align 8
  %65 = getelementptr inbounds nuw %struct.poly1305_state_internal_t, ptr %64, i32 0, i32 0
  %66 = getelementptr [3 x i64], ptr %65, i64 0, i64 1
  %67 = load i64, ptr %66, align 8
  store i64 %67, ptr %10, align 8
  %68 = load ptr, ptr %5, align 8
  %69 = getelementptr inbounds nuw %struct.poly1305_state_internal_t, ptr %68, i32 0, i32 0
  %70 = getelementptr [3 x i64], ptr %69, i64 0, i64 2
  %71 = load i64, ptr %70, align 8
  store i64 %71, ptr %11, align 8
  %72 = load i64, ptr %9, align 8
  %73 = load i64, ptr %10, align 8
  %74 = shl i64 %73, 44
  %75 = or i64 %72, %74
  store i64 %75, ptr %9, align 8
  %76 = load i64, ptr %10, align 8
  %77 = lshr i64 %76, 20
  %78 = load i64, ptr %11, align 8
  %79 = shl i64 %78, 24
  %80 = or i64 %77, %79
  store i64 %80, ptr %10, align 8
  %81 = load i64, ptr %9, align 8
  %82 = load i64, ptr %10, align 8
  %83 = load ptr, ptr %5, align 8
  %84 = getelementptr inbounds nuw %struct.poly1305_state_internal_t, ptr %83, i32 0, i32 4
  %85 = getelementptr [2 x i64], ptr %84, i64 0, i64 0
  %86 = load i64, ptr %85, align 8
  %87 = load ptr, ptr %5, align 8
  %88 = getelementptr inbounds nuw %struct.poly1305_state_internal_t, ptr %87, i32 0, i32 4
  %89 = getelementptr [2 x i64], ptr %88, i64 0, i64 1
  %90 = load i64, ptr %89, align 8
  %91 = call { i64, i64 } asm sideeffect "addq $2, $0 ;\0Aadcq $3, $1 ;\0A", "=r,=r,r,r,0,1,~{flags},~{cc},~{dirflag},~{fpsr},~{flags}"(i64 %86, i64 %90, i64 %81, i64 %82) #11, !srcloc !7
  %92 = extractvalue { i64, i64 } %91, 0
  %93 = extractvalue { i64, i64 } %91, 1
  store i64 %92, ptr %9, align 8
  store i64 %93, ptr %10, align 8
  %94 = load ptr, ptr %5, align 8
  %95 = getelementptr <2 x i64>, ptr %94, i64 0
  %96 = call <2 x i64> @_mm_setzero_si128()
  call void @_mm_storeu_si128(ptr noundef %95, <2 x i64> noundef %96)
  %97 = load ptr, ptr %5, align 8
  %98 = getelementptr <2 x i64>, ptr %97, i64 1
  %99 = call <2 x i64> @_mm_setzero_si128()
  call void @_mm_storeu_si128(ptr noundef %98, <2 x i64> noundef %99)
  %100 = load ptr, ptr %5, align 8
  %101 = getelementptr <2 x i64>, ptr %100, i64 2
  %102 = call <2 x i64> @_mm_setzero_si128()
  call void @_mm_storeu_si128(ptr noundef %101, <2 x i64> noundef %102)
  %103 = load ptr, ptr %5, align 8
  %104 = getelementptr <2 x i64>, ptr %103, i64 3
  %105 = call <2 x i64> @_mm_setzero_si128()
  call void @_mm_storeu_si128(ptr noundef %104, <2 x i64> noundef %105)
  %106 = load ptr, ptr %5, align 8
  %107 = getelementptr <2 x i64>, ptr %106, i64 4
  %108 = call <2 x i64> @_mm_setzero_si128()
  call void @_mm_storeu_si128(ptr noundef %107, <2 x i64> noundef %108)
  %109 = load ptr, ptr %5, align 8
  %110 = getelementptr <2 x i64>, ptr %109, i64 5
  %111 = call <2 x i64> @_mm_setzero_si128()
  call void @_mm_storeu_si128(ptr noundef %110, <2 x i64> noundef %111)
  %112 = load ptr, ptr %5, align 8
  %113 = getelementptr <2 x i64>, ptr %112, i64 6
  %114 = call <2 x i64> @_mm_setzero_si128()
  call void @_mm_storeu_si128(ptr noundef %113, <2 x i64> noundef %114)
  %115 = load ptr, ptr %5, align 8
  %116 = getelementptr <2 x i64>, ptr %115, i64 7
  %117 = call <2 x i64> @_mm_setzero_si128()
  call void @_mm_storeu_si128(ptr noundef %116, <2 x i64> noundef %117)
  %118 = load ptr, ptr %8, align 8
  %119 = getelementptr i8, ptr %118, i64 0
  %120 = call ptr @memcpy.inline(ptr noundef %119, ptr noundef %9, i64 noundef 8) #11
  %121 = load ptr, ptr %8, align 8
  %122 = getelementptr i8, ptr %121, i64 8
  %123 = call ptr @memcpy.inline(ptr noundef %122, ptr noundef %10, i64 noundef 8) #11
  %124 = load ptr, ptr %5, align 8
  call void @sodium_memzero(ptr noundef %124, i64 noundef 168)
  call void @llvm.lifetime.end.p0(i64 8, ptr %11) #11
  call void @llvm.lifetime.end.p0(i64 8, ptr %10) #11
  call void @llvm.lifetime.end.p0(i64 8, ptr %9) #11
  ret void
}