; Function Attrs: noinline nounwind ssp uwtable
define internal fastcc void @poly1305_finish_ext(ptr noundef %0, ptr noundef readonly captures(none) %1, i64 noundef %2, ptr noundef %3) unnamed_addr #6 {
  %5 = alloca [32 x i8], align 16
  %.not = icmp eq i64 %2, 0
  br i1 %.not, label %49, label %6

6:                                                ; preds = %4
  call void @llvm.lifetime.start.p0(i64 32, ptr nonnull %5) #11
  call void @llvm.memset.p0.i64(ptr noundef nonnull align 16 dereferenceable(32) %5, i8 0, i64 32, i1 false)
  %7 = and i64 %2, 16
  %.not.i = icmp eq i64 %7, 0
  br i1 %.not.i, label %12, label %8

8:                                                ; preds = %6
  %9 = load <2 x i64>, ptr %1, align 1
  store <2 x i64> %9, ptr %5, align 16
  %10 = getelementptr i8, ptr %1, i64 16
  %11 = getelementptr inbounds nuw i8, ptr %5, i64 16
  br label %12

12:                                               ; preds = %8, %6
  %.022.i = phi ptr [ %10, %8 ], [ %1, %6 ]
  %.neg = phi i64 [ 16, %8 ], [ 32, %6 ]
  %13 = phi i64 [ 16, %8 ], [ 0, %6 ]
  %.0.i = phi ptr [ %11, %8 ], [ %5, %6 ]
  %14 = and i64 %2, 8
  %.not26.i = icmp eq i64 %14, 0
  br i1 %.not26.i, label %20, label %15

15:                                               ; preds = %12
  %16 = call ptr @__memcpy_chk(ptr noundef nonnull %.0.i, ptr noundef nonnull %.022.i, i64 noundef 8, i64 noundef %.neg) #11, !alias.scope !9
  %17 = getelementptr i8, ptr %.022.i, i64 8
  %18 = or disjoint i64 %13, 8
  %19 = getelementptr i8, ptr %.0.i, i64 8
  br label %20

20:                                               ; preds = %15, %12
  %.123.i = phi ptr [ %17, %15 ], [ %.022.i, %12 ]
  %21 = phi i64 [ %18, %15 ], [ %13, %12 ]
  %.1.i = phi ptr [ %19, %15 ], [ %.0.i, %12 ]
  %22 = and i64 %2, 4
  %.not27.i = icmp eq i64 %22, 0
  br i1 %.not27.i, label %29, label %23

23:                                               ; preds = %20
  %24 = sub nuw nsw i64 32, %21
  %25 = call ptr @__memcpy_chk(ptr noundef nonnull %.1.i, ptr noundef nonnull %.123.i, i64 noundef 4, i64 noundef %24) #11, !alias.scope !13
  %26 = getelementptr i8, ptr %.123.i, i64 4
  %27 = add nuw nsw i64 %21, 4
  %28 = getelementptr i8, ptr %.1.i, i64 4
  br label %29

29:                                               ; preds = %23, %20
  %.224.i = phi ptr [ %26, %23 ], [ %.123.i, %20 ]
  %30 = phi i64 [ %27, %23 ], [ %21, %20 ]
  %.2.i = phi ptr [ %28, %23 ], [ %.1.i, %20 ]
  %31 = and i64 %2, 2
  %.not28.i = icmp eq i64 %31, 0
  br i1 %.not28.i, label %37, label %32

32:                                               ; preds = %29
  %33 = call i64 @llvm.usub.sat.i64(i64 32, i64 %30)
  %34 = call ptr @__memcpy_chk(ptr noundef nonnull %.2.i, ptr noundef nonnull %.224.i, i64 noundef 2, i64 noundef %33) #11, !alias.scope !17
  %35 = getelementptr i8, ptr %.224.i, i64 2
  %36 = getelementptr i8, ptr %.2.i, i64 2
  br label %37

37:                                               ; preds = %32, %29
  %.325.i = phi ptr [ %35, %32 ], [ %.224.i, %29 ]
  %.3.i = phi ptr [ %36, %32 ], [ %.2.i, %29 ]
  %38 = and i64 %2, 1
  %.not29.i = icmp eq i64 %38, 0
  br i1 %.not29.i, label %poly1305_block_copy31.exit, label %39

39:                                               ; preds = %37
  %40 = load i8, ptr %.325.i, align 1
  store i8 %40, ptr %.3.i, align 1
  br label %poly1305_block_copy31.exit

poly1305_block_copy31.exit:                       ; preds = %37, %39
  %.not31 = icmp eq i64 %2, 16
  br i1 %.not31, label %43, label %41

41:                                               ; preds = %poly1305_block_copy31.exit
  %42 = getelementptr [32 x i8], ptr %5, i64 0, i64 %2
  store i8 1, ptr %42, align 1
  br label %43

43:                                               ; preds = %41, %poly1305_block_copy31.exit
  %44 = icmp ugt i64 %2, 15
  %45 = select i1 %44, i64 4, i64 8
  %46 = getelementptr inbounds nuw i8, ptr %0, i64 120
  %47 = load i64, ptr %46, align 8
  %48 = or i64 %47, %45
  store i64 %48, ptr %46, align 8
  call fastcc void @poly1305_blocks(ptr noundef %0, ptr noundef nonnull %5, i64 noundef 32)
  call void @llvm.lifetime.end.p0(i64 32, ptr nonnull %5) #11
  br label %49

49:                                               ; preds = %43, %4
  %50 = getelementptr inbounds nuw i8, ptr %0, i64 120
  %51 = load i64, ptr %50, align 8
  %52 = and i64 %51, 1
  %.not32 = icmp eq i64 %52, 0
  br i1 %.not32, label %55, label %53

53:                                               ; preds = %49
  %54 = add i64 %2, -17
  %or.cond = icmp ult i64 %54, -16
  %storemerge.v = select i1 %or.cond, i64 16, i64 32
  %storemerge = or i64 %51, %storemerge.v
  store i64 %storemerge, ptr %50, align 8
  call fastcc void @poly1305_blocks(ptr noundef nonnull %0, ptr noundef null, i64 noundef 32)
  br label %55

55:                                               ; preds = %53, %49
  %56 = load i64, ptr %0, align 8
  %57 = getelementptr i8, ptr %0, i64 8
  %58 = load i64, ptr %57, align 8
  %59 = getelementptr i8, ptr %0, i64 16
  %60 = load i64, ptr %59, align 8
  %61 = shl i64 %58, 44
  %62 = or i64 %61, %56
  %63 = lshr i64 %58, 20
  %64 = shl i64 %60, 24
  %65 = or i64 %64, %63
  %66 = getelementptr inbounds nuw i8, ptr %0, i64 104
  %67 = load i64, ptr %66, align 8
  %68 = getelementptr i8, ptr %0, i64 112
  %69 = load i64, ptr %68, align 8
  %70 = call { i64, i64 } asm sideeffect "addq $2, $0 ;\0Aadcq $3, $1 ;\0A", "=r,=r,r,r,0,1,~{flags},~{cc},~{dirflag},~{fpsr},~{flags}"(i64 %67, i64 %69, i64 %62, i64 %65) #11, !srcloc !21
  %71 = extractvalue { i64, i64 } %70, 0
  %72 = extractvalue { i64, i64 } %70, 1
  call void @llvm.memset.p0.i64(ptr noundef nonnull align 1 dereferenceable(128) %0, i8 0, i64 128, i1 false)
  store i64 %71, ptr %3, align 1
  %73 = getelementptr i8, ptr %3, i64 8
  store i64 %72, ptr %73, align 1
  call void @sodium_memzero(ptr noundef nonnull %0, i64 noundef 168) #11
  ret void
}